; Function Attrs: mustprogress nofree norecurse nosync nounwind memory(readwrite, inaccessiblemem: none) uwtable
define noundef i32 @_ZNK6casadi17GetNonzerosVector4evalEPPKdPPdPxS4_(ptr nocapture noundef nonnull readonly align 8 dereferenceable(88) %0, ptr nocapture noundef readonly %1, ptr nocapture noundef readonly %2, ptr nocapture readnone %3, ptr nocapture readnone %4) unnamed_addr #6 align 2 {
  %6 = load ptr, ptr %1, align 8
  %7 = getelementptr inbounds i8, ptr %0, i64 64
  %8 = load ptr, ptr %7, align 8
  %9 = getelementptr inbounds i8, ptr %0, i64 72
  %10 = load ptr, ptr %9, align 8
  %.not13.i = icmp eq ptr %8, %10
  br i1 %.not13.i, label %_ZNK6casadi17GetNonzerosVector8eval_genIdEEiPKPKT_PKPS2_PxS7_.exit, label %.lr.ph.preheader.i

.lr.ph.preheader.i:                               ; preds = %5
  %11 = load ptr, ptr %2, align 8
  br label %.lr.ph.i

.lr.ph.i:                                         ; preds = %17, %.lr.ph.preheader.i
  %.015.i = phi ptr [ %19, %17 ], [ %11, %.lr.ph.preheader.i ]
  %.sroa.010.014.i = phi ptr [ %20, %17 ], [ %8, %.lr.ph.preheader.i ]
  %12 = load i64, ptr %.sroa.010.014.i, align 8
  %13 = icmp sgt i64 %12, -1
  br i1 %13, label %14, label %17

14:                                               ; preds = %.lr.ph.i
  %15 = getelementptr inbounds double, ptr %6, i64 %12
  %16 = load double, ptr %15, align 8
  br label %17

17:                                               ; preds = %14, %.lr.ph.i
  %18 = phi double [ %16, %14 ], [ 0.000000e+00, %.lr.ph.i ]
  %19 = getelementptr inbounds i8, ptr %.015.i, i64 8
  store double %18, ptr %.015.i, align 8
  %20 = getelementptr inbounds i8, ptr %.sroa.010.014.i, i64 8
  %.not.i = icmp eq ptr %20, %10
  br i1 %.not.i, label %_ZNK6casadi17GetNonzerosVector8eval_genIdEEiPKPKT_PKPS2_PxS7_.exit, label %.lr.ph.i

_ZNK6casadi17GetNonzerosVector8eval_genIdEEiPKPKT_PKPS2_PxS7_.exit: ; preds = %17, %5
  ret i32 0
}